target datalayout = "e-m:e-p270:32:32-p271:32:32-p272:64:64-i64:64-i128:128-f80:128-n8:16:32:64-S128"
target triple = "x86_64-pc-linux-gnu"

%"class.gmx::SelectionTreeElement" = type { i32, %struct.gmx_ana_selvalue_t, ptr, i32, %union.anon.0, ptr, ptr, %"class.std::shared_ptr", %"class.std::shared_ptr", %"class.std::__cxx11::basic_string", %"struct.gmx::SelectionLocation" }
%struct.gmx_ana_selvalue_t = type { i32, i32, %union.anon, i32 }
%union.anon = type { ptr }
%union.anon.0 = type { %struct.anon }
%struct.anon = type { ptr, ptr, ptr, ptr }
%"class.std::shared_ptr" = type { %"class.std::__shared_ptr" }
%"class.std::__shared_ptr" = type { ptr, %"class.std::__shared_count" }
%"class.std::__shared_count" = type { ptr }
%"class.std::__cxx11::basic_string" = type { %"struct.std::__cxx11::basic_string<char>::_Alloc_hider", i64, %union.anon.2 }
%"struct.std::__cxx11::basic_string<char>::_Alloc_hider" = type { ptr }
%union.anon.2 = type { i64, [8 x i8] }
%"struct.gmx::SelectionLocation" = type { i32, i32 }
%"class.std::allocator" = type { i8 }
%"class.std::filesystem::__cxx11::path" = type { %"class.std::__cxx11::basic_string", %"struct.std::filesystem::__cxx11::path::_List" }
%"struct.std::filesystem::__cxx11::path::_List" = type { %"class.std::unique_ptr" }
%"class.std::unique_ptr" = type { %"struct.std::__uniq_ptr_data" }
%"struct.std::__uniq_ptr_data" = type { %"class.std::__uniq_ptr_impl" }
%"class.std::__uniq_ptr_impl" = type { %"class.std::tuple" }
%"class.std::tuple" = type { %"struct.std::_Tuple_impl" }
%"struct.std::_Tuple_impl" = type { %"struct.std::_Head_base.4" }
%"struct.std::_Head_base.4" = type { ptr }

@.str.20 = private unnamed_addr constant [127 x i8] c"generated/home/dtcxzyw/WorkSpace/Projects/compilers/llvm-opt-benchmark/bench/gromacs/gromacs/src/gromacs/selection/selelem.cpp\00", align 1
@.str.24 = private unnamed_addr constant [7 x i8] c"incons\00", align 1
@.str.25 = private unnamed_addr constant [50 x i8] c"Memory pooling not implemented for requested type\00", align 1

; Function Attrs: mustprogress uwtable
define void @_ZN3gmx20SelectionTreeElement14mempoolReleaseEv(ptr noundef nonnull align 8 dereferenceable(168) %0) #1 align 2 personality ptr @__gxx_personality_v0 {
  %2 = alloca ptr, align 8
  %3 = alloca %"class.std::__cxx11::basic_string", align 8
  %4 = alloca %"class.std::allocator", align 1
  %5 = alloca ptr, align 8
  %6 = alloca i32, align 4
  %7 = alloca %"class.std::filesystem::__cxx11::path", align 8
  store ptr %0, ptr %2, align 8
  %8 = load ptr, ptr %2, align 8
  %9 = getelementptr inbounds %"class.gmx::SelectionTreeElement", ptr %8, i32 0, i32 5
  %10 = load ptr, ptr %9, align 8
  %11 = icmp ne ptr %10, null
  br i1 %11, label %13, label %12

12:                                               ; preds = %1
  br label %54

13:                                               ; preds = %1
  %14 = getelementptr inbounds %"class.gmx::SelectionTreeElement", ptr %8, i32 0, i32 1
  %15 = getelementptr inbounds %struct.gmx_ana_selvalue_t, ptr %14, i32 0, i32 0
  %16 = load i32, ptr %15, align 8
  switch i32 %16, label %36 [
    i32 1, label %17
    i32 2, label %17
    i32 5, label %24
  ]

17:                                               ; preds = %13, %13
  %18 = getelementptr inbounds %"class.gmx::SelectionTreeElement", ptr %8, i32 0, i32 5
  %19 = load ptr, ptr %18, align 8
  %20 = getelementptr inbounds %"class.gmx::SelectionTreeElement", ptr %8, i32 0, i32 1
  %21 = getelementptr inbounds %struct.gmx_ana_selvalue_t, ptr %20, i32 0, i32 2
  %22 = load ptr, ptr %21, align 8
  call void @_Z21_gmx_sel_mempool_freeP17gmx_sel_mempool_tPv(ptr noundef %19, ptr noundef %22)
  %23 = getelementptr inbounds %"class.gmx::SelectionTreeElement", ptr %8, i32 0, i32 1
  call void @_Z22_gmx_selvalue_setstoreP18gmx_ana_selvalue_tPv(ptr noundef %23, ptr noundef null)
  br label %54

24:                                               ; preds = %13
  %25 = getelementptr inbounds %"class.gmx::SelectionTreeElement", ptr %8, i32 0, i32 1
  %26 = getelementptr inbounds %struct.gmx_ana_selvalue_t, ptr %25, i32 0, i32 2
  %27 = load ptr, ptr %26, align 8
  %28 = icmp ne ptr %27, null
  br i1 %28, label %29, label %35

29:                                               ; preds = %24
  %30 = getelementptr inbounds %"class.gmx::SelectionTreeElement", ptr %8, i32 0, i32 5
  %31 = load ptr, ptr %30, align 8
  %32 = getelementptr inbounds %"class.gmx::SelectionTreeElement", ptr %8, i32 0, i32 1
  %33 = getelementptr inbounds %struct.gmx_ana_selvalue_t, ptr %32, i32 0, i32 2
  %34 = load ptr, ptr %33, align 8
  call void @_Z27_gmx_sel_mempool_free_groupP17gmx_sel_mempool_tP15gmx_ana_index_t(ptr noundef %31, ptr noundef %34)
  br label %35

35:                                               ; preds = %29, %24
  br label %54

36:                                               ; preds = %13
  call void @_ZNSaIcEC1Ev(ptr noundef nonnull align 1 dereferenceable(1) %4) #11
  invoke void @_ZNSt7__cxx1112basic_stringIcSt11char_traitsIcESaIcEEC2IS3_EEPKcRKS3_(ptr noundef nonnull align 8 dereferenceable(32) %3, ptr noundef @.str.25, ptr noundef nonnull align 1 dereferenceable(1) %4)
          to label %37 unwind label %40

37:                                               ; preds = %36
  invoke void @_ZNSt10filesystem7__cxx114pathC2IA127_cS1_EERKT_NS1_6formatE(ptr noundef nonnull align 8 dereferenceable(40) %7, ptr noundef nonnull align 1 dereferenceable(127) @.str.20, i8 noundef zeroext 2)
          to label %38 unwind label %44

38:                                               ; preds = %37
  invoke void @_Z18gmx_error_functionPKcRKNSt7__cxx1112basic_stringIcSt11char_traitsIcESaIcEEERKNSt10filesystem7__cxx114pathEi(ptr noundef @.str.24, ptr noundef nonnull align 8 dereferenceable(32) %3, ptr noundef nonnull align 8 dereferenceable(40) %7, i32 noundef 282) #14
          to label %39 unwind label %48

39:                                               ; preds = %38
  unreachable

40:                                               ; preds = %36
  %41 = landingpad { ptr, i32 }
          cleanup
  %42 = extractvalue { ptr, i32 } %41, 0
  store ptr %42, ptr %5, align 8
  %43 = extractvalue { ptr, i32 } %41, 1
  store i32 %43, ptr %6, align 4
  br label %53

44:                                               ; preds = %37
  %45 = landingpad { ptr, i32 }
          cleanup
  %46 = extractvalue { ptr, i32 } %45, 0
  store ptr %46, ptr %5, align 8
  %47 = extractvalue { ptr, i32 } %45, 1
  store i32 %47, ptr %6, align 4
  br label %52

48:                                               ; preds = %38
  %49 = landingpad { ptr, i32 }
          cleanup
  %50 = extractvalue { ptr, i32 } %49, 0
  store ptr %50, ptr %5, align 8
  %51 = extractvalue { ptr, i32 } %49, 1
  store i32 %51, ptr %6, align 4
  call void @_ZNSt10filesystem7__cxx114pathD2Ev(ptr noundef nonnull align 8 dereferenceable(40) %7) #11
  br label %52

52:                                               ; preds = %48, %44
  call void @_ZNSt7__cxx1112basic_stringIcSt11char_traitsIcESaIcEED1Ev(ptr noundef nonnull align 8 dereferenceable(32) %3) #11
  br label %53

53:                                               ; preds = %52, %40
  call void @_ZNSaIcED1Ev(ptr noundef nonnull align 1 dereferenceable(1) %4) #11
  br label %55

54:                                               ; preds = %35, %17, %12
  ret void

55:                                               ; preds = %53
  %56 = load ptr, ptr %5, align 8
  %57 = load i32, ptr %6, align 4
  %58 = insertvalue { ptr, i32 } poison, ptr %56, 0
  %59 = insertvalue { ptr, i32 } %58, i32 %57, 1
  resume { ptr, i32 } %59
}