; Function Attrs: mustprogress uwtable
define void @_ZN3gmx20SelectionTreeElement14mempoolReleaseEv(ptr noundef nonnull align 8 dereferenceable(168) %0) local_unnamed_addr #1 align 2 personality ptr @__gxx_personality_v0 {
  %2 = alloca %"class.std::__cxx11::basic_string", align 8
  %3 = alloca %"class.std::allocator", align 1
  %4 = alloca %"class.std::filesystem::__cxx11::path", align 8
  %5 = getelementptr inbounds i8, ptr %0, i64 80
  %6 = load ptr, ptr %5, align 8
  %.not = icmp eq ptr %6, null
  br i1 %.not, label %29, label %7

7:                                                ; preds = %1
  %8 = getelementptr inbounds i8, ptr %0, i64 8
  %9 = load i32, ptr %8, align 8
  switch i32 %9, label %17 [
    i32 1, label %10
    i32 2, label %10
    i32 5, label %13
  ]

10:                                               ; preds = %7, %7
  %11 = getelementptr inbounds i8, ptr %0, i64 16
  %12 = load ptr, ptr %11, align 8
  tail call void @_Z21_gmx_sel_mempool_freeP17gmx_sel_mempool_tPv(ptr noundef nonnull %6, ptr noundef %12)
  tail call void @_Z22_gmx_selvalue_setstoreP18gmx_ana_selvalue_tPv(ptr noundef nonnull %8, ptr noundef null)
  br label %29

13:                                               ; preds = %7
  %14 = getelementptr inbounds i8, ptr %0, i64 16
  %15 = load ptr, ptr %14, align 8
  %.not6 = icmp eq ptr %15, null
  br i1 %.not6, label %29, label %16

16:                                               ; preds = %13
  tail call void @_Z27_gmx_sel_mempool_free_groupP17gmx_sel_mempool_tP15gmx_ana_index_t(ptr noundef nonnull %6, ptr noundef nonnull %15)
  br label %29

17:                                               ; preds = %7
  call void @_ZNSaIcEC1Ev(ptr noundef nonnull align 1 dereferenceable(1) %3) #17
  invoke void @_ZNSt7__cxx1112basic_stringIcSt11char_traitsIcESaIcEEC2IS3_EEPKcRKS3_(ptr noundef nonnull align 8 dereferenceable(32) %2, ptr noundef nonnull @.str.25, ptr noundef nonnull align 1 dereferenceable(1) %3)
          to label %18 unwind label %21

18:                                               ; preds = %17
  invoke void @_ZNSt10filesystem7__cxx114pathC2IA127_cS1_EERKT_NS1_6formatE(ptr noundef nonnull align 8 dereferenceable(40) %4, ptr noundef nonnull align 1 dereferenceable(127) @.str.20, i8 noundef zeroext 2)
          to label %19 unwind label %23

19:                                               ; preds = %18
  invoke void @_Z18gmx_error_functionPKcRKNSt7__cxx1112basic_stringIcSt11char_traitsIcESaIcEEERKNSt10filesystem7__cxx114pathEi(ptr noundef nonnull @.str.24, ptr noundef nonnull align 8 dereferenceable(32) %2, ptr noundef nonnull align 8 dereferenceable(40) %4, i32 noundef 282) #19
          to label %20 unwind label %25

20:                                               ; preds = %19
  unreachable

21:                                               ; preds = %17
  %22 = landingpad { ptr, i32 }
          cleanup
  br label %28

23:                                               ; preds = %18
  %24 = landingpad { ptr, i32 }
          cleanup
  br label %27

25:                                               ; preds = %19
  %26 = landingpad { ptr, i32 }
          cleanup
  call void @_ZNSt10filesystem7__cxx114pathD2Ev(ptr noundef nonnull align 8 dereferenceable(40) %4) #17
  br label %27

27:                                               ; preds = %25, %23
  %.pn = phi { ptr, i32 } [ %26, %25 ], [ %24, %23 ]
  call void @_ZNSt7__cxx1112basic_stringIcSt11char_traitsIcESaIcEED1Ev(ptr noundef nonnull align 8 dereferenceable(32) %2) #17
  br label %28

28:                                               ; preds = %27, %21
  %.pn.pn = phi { ptr, i32 } [ %.pn, %27 ], [ %22, %21 ]
  call void @_ZNSaIcED1Ev(ptr noundef nonnull align 1 dereferenceable(1) %3) #17
  resume { ptr, i32 } %.pn.pn

29:                                               ; preds = %13, %16, %1, %10
  ret void
}